target datalayout = "e-m:e-p270:32:32-p271:32:32-p272:64:64-i64:64-i128:128-f80:128-n8:16:32:64-S128"
target triple = "x86_64-pc-linux-gnu"

%"class.icu_77::number::Scale" = type <{ i32, [4 x i8], ptr, i32, [4 x i8] }>

; Function Attrs: mustprogress uwtable
define void @_ZN6icu_776number5ScaleC2ERKS1_(ptr noundef nonnull align 8 dereferenceable(20) %0, ptr noundef nonnull align 8 dereferenceable(20) %1) unnamed_addr #1 align 2 personality ptr @__gxx_personality_v0 {
  %3 = alloca ptr, align 8
  %4 = alloca ptr, align 8
  %5 = alloca i32, align 4
  %6 = alloca ptr, align 8
  %7 = alloca i1, align 1
  %8 = alloca ptr, align 8
  %9 = alloca i32, align 4
  store ptr %0, ptr %3, align 8, !tbaa !23
  store ptr %1, ptr %4, align 8, !tbaa !23
  %10 = load ptr, ptr %3, align 8
  %11 = getelementptr inbounds nuw %"class.icu_77::number::Scale", ptr %10, i32 0, i32 0
  %12 = load ptr, ptr %4, align 8, !tbaa !23
  %13 = getelementptr inbounds nuw %"class.icu_77::number::Scale", ptr %12, i32 0, i32 0
  %14 = load i32, ptr %13, align 8, !tbaa !27
  store i32 %14, ptr %11, align 8, !tbaa !27
  %15 = getelementptr inbounds nuw %"class.icu_77::number::Scale", ptr %10, i32 0, i32 2
  store ptr null, ptr %15, align 8, !tbaa !29
  %16 = getelementptr inbounds nuw %"class.icu_77::number::Scale", ptr %10, i32 0, i32 3
  %17 = load ptr, ptr %4, align 8, !tbaa !23
  %18 = getelementptr inbounds nuw %"class.icu_77::number::Scale", ptr %17, i32 0, i32 3
  %19 = load i32, ptr %18, align 8, !tbaa !30
  store i32 %19, ptr %16, align 8, !tbaa !30
  %20 = load ptr, ptr %4, align 8, !tbaa !23
  %21 = getelementptr inbounds nuw %"class.icu_77::number::Scale", ptr %20, i32 0, i32 2
  %22 = load ptr, ptr %21, align 8, !tbaa !29
  %23 = icmp ne ptr %22, null
  br i1 %23, label %24, label %43

24:                                               ; preds = %2
  call void @llvm.lifetime.start.p0(i64 4, ptr %5) #10
  store i32 0, ptr %5, align 4, !tbaa !15
  %25 = call noundef ptr @_ZN6icu_777UMemorynwEm(i64 noundef 96) #10
  %26 = icmp eq ptr %25, null
  store i1 false, ptr %7, align 1
  br i1 %26, label %32, label %27

27:                                               ; preds = %24
  store ptr %25, ptr %6, align 8
  store i1 true, ptr %7, align 1
  %28 = load ptr, ptr %4, align 8, !tbaa !23
  %29 = getelementptr inbounds nuw %"class.icu_77::number::Scale", ptr %28, i32 0, i32 2
  %30 = load ptr, ptr %29, align 8, !tbaa !29
  invoke void @_ZN6icu_776number4impl6DecNumC1ERKS2_R10UErrorCode(ptr noundef nonnull align 8 dereferenceable(92) %25, ptr noundef nonnull align 8 dereferenceable(92) %30, ptr noundef nonnull align 4 dereferenceable(4) %5)
          to label %31 unwind label %35

31:                                               ; preds = %27
  br label %32

32:                                               ; preds = %31, %24
  %33 = phi ptr [ %25, %31 ], [ null, %24 ]
  %34 = getelementptr inbounds nuw %"class.icu_77::number::Scale", ptr %10, i32 0, i32 2
  store ptr %33, ptr %34, align 8, !tbaa !29
  call void @llvm.lifetime.end.p0(i64 4, ptr %5) #10
  br label %43

35:                                               ; preds = %27
  %36 = landingpad { ptr, i32 }
          cleanup
  %37 = extractvalue { ptr, i32 } %36, 0
  store ptr %37, ptr %8, align 8
  %38 = extractvalue { ptr, i32 } %36, 1
  store i32 %38, ptr %9, align 4
  %39 = load i1, ptr %7, align 1
  br i1 %39, label %40, label %42

40:                                               ; preds = %35
  %41 = load ptr, ptr %6, align 8
  call void @_ZN6icu_777UMemorydlEPv(ptr noundef %41) #10
  br label %42

42:                                               ; preds = %40, %35
  call void @llvm.lifetime.end.p0(i64 4, ptr %5) #10
  br label %44

43:                                               ; preds = %32, %2
  ret void

44:                                               ; preds = %42
  %45 = load ptr, ptr %8, align 8
  %46 = load i32, ptr %9, align 4
  %47 = insertvalue { ptr, i32 } poison, ptr %45, 0
  %48 = insertvalue { ptr, i32 } %47, i32 %46, 1
  resume { ptr, i32 } %48
}