; Function Attrs: mustprogress uwtable
define void @_ZN6icu_776number5ScaleC2ERKS1_(ptr noundef nonnull writeonly align 8 captures(none) dereferenceable(20) initializes((0, 4), (8, 20)) %0, ptr noundef nonnull readonly align 8 captures(none) dereferenceable(20) %1) unnamed_addr #1 align 2 personality ptr @__gxx_personality_v0 {
  %3 = alloca i32, align 4
  %4 = load i32, ptr %1, align 8, !tbaa !15
  store i32 %4, ptr %0, align 8, !tbaa !15
  %5 = getelementptr inbounds nuw i8, ptr %0, i64 8
  store ptr null, ptr %5, align 8, !tbaa !18
  %6 = getelementptr inbounds nuw i8, ptr %0, i64 16
  %7 = getelementptr inbounds nuw i8, ptr %1, i64 16
  %8 = load i32, ptr %7, align 8, !tbaa !19
  store i32 %8, ptr %6, align 8, !tbaa !19
  %9 = getelementptr inbounds nuw i8, ptr %1, i64 8
  %10 = load ptr, ptr %9, align 8, !tbaa !18
  %.not = icmp eq ptr %10, null
  br i1 %.not, label %19, label %11

11:                                               ; preds = %2
  call void @llvm.lifetime.start.p0(i64 4, ptr nonnull %3) #13
  store i32 0, ptr %3, align 4, !tbaa !13
  %12 = tail call noundef ptr @_ZN6icu_777UMemorynwEm(i64 noundef 96) #13
  %13 = icmp eq ptr %12, null
  br i1 %13, label %16, label %14

14:                                               ; preds = %11
  %15 = load ptr, ptr %9, align 8, !tbaa !18
  invoke void @_ZN6icu_776number4impl6DecNumC1ERKS2_R10UErrorCode(ptr noundef nonnull align 8 dereferenceable(92) %12, ptr noundef nonnull align 8 dereferenceable(92) %15, ptr noundef nonnull align 4 dereferenceable(4) %3)
          to label %16 unwind label %17

16:                                               ; preds = %14, %11
  store ptr %12, ptr %5, align 8, !tbaa !18
  call void @llvm.lifetime.end.p0(i64 4, ptr nonnull %3) #13
  br label %19

17:                                               ; preds = %14
  %18 = landingpad { ptr, i32 }
          cleanup
  call void @_ZN6icu_777UMemorydlEPv(ptr noundef nonnull %12) #13
  call void @llvm.lifetime.end.p0(i64 4, ptr nonnull %3) #13
  resume { ptr, i32 } %18

19:                                               ; preds = %16, %2
  ret void
}